; Function Attrs: mustprogress nofree norecurse nosync nounwind willreturn memory(read, inaccessiblemem: none) uwtable
define noundef range(i32 0, 65536) i32 @_ZNK6icu_7713CollationData14getScriptIndexEi(ptr noundef nonnull readonly align 8 captures(none) dereferenceable(140) %0, i32 noundef %1) local_unnamed_addr #0 align 2 {
  %3 = icmp slt i32 %1, 0
  br i1 %3, label %24, label %4

4:                                                ; preds = %2
  %5 = getelementptr inbounds nuw i8, ptr %0, i64 100
  %6 = load i32, ptr %5, align 4, !tbaa !36
  %7 = icmp slt i32 %1, %6
  br i1 %7, label %8, label %14

8:                                                ; preds = %4
  %9 = getelementptr inbounds nuw i8, ptr %0, i64 104
  %10 = load ptr, ptr %9, align 8, !tbaa !37
  %11 = zext nneg i32 %1 to i64
  %12 = getelementptr inbounds nuw i16, ptr %10, i64 %11
  %13 = load i16, ptr %12, align 2, !tbaa !29
  br label %24

14:                                               ; preds = %4
  %15 = and i32 %1, 2147483640
  %or.cond = icmp eq i32 %15, 4096
  br i1 %or.cond, label %16, label %24

16:                                               ; preds = %14
  %17 = add nsw i32 %1, -4096
  %18 = getelementptr inbounds nuw i8, ptr %0, i64 104
  %19 = load ptr, ptr %18, align 8, !tbaa !37
  %20 = add nsw i32 %17, %6
  %21 = sext i32 %20 to i64
  %22 = getelementptr inbounds i16, ptr %19, i64 %21
  %23 = load i16, ptr %22, align 2, !tbaa !29
  br label %24

24:                                               ; preds = %14, %2, %16, %8
  %.0.shrunk = phi i16 [ %13, %8 ], [ %23, %16 ], [ 0, %2 ], [ 0, %14 ]
  %.0 = zext i16 %.0.shrunk to i32
  ret i32 %.0
}